(lp0
F37.60057383116666
aF36.79597870373069
aF40.802704161448666
aF39.399198870094914
aF33.802321210000265
aF35.99830927741688
aF37.20044269965708
aF44.59971090128253
aF33.99669273513176
aF43.39609651613953
aF38.19979135795727
aF41.40041238008536
aF41.40113698028541
aF33.99850727468254
aF41.19700353763738
aF35.19717047573332
aF36.197027249245714
aF33.00373755765553
aF38.2048021817342
aF38.60026523650364
aF38.19919036254504
aF38.00092561465281
aF39.60085404625435
aF34.99971452802893
aF37.19821364171291
aF38.40400486573741
aF36.1987236694667
aF34.19315837837835
aF39.21166312145048
aF38.59855957997591
aF39.39766811096399
aF37.00355979906703
aF32.99769016584896
aF43.20212729245439
aF44.815663137255285
aF38.00179469465375
aF32.599559307827356
aF39.19796270499246
aF33.39234684880295
aF41.19865761807423
aF39.39657143077925
aF41.400465513906205
aF37.20073783368489
aF37.39998788068604
aF32.39440862690477
aF38.403720355556565
aF37.59361857147961
aF38.400729031197194
aF35.399842622191784
aF41.00565866751229
aF41.802428471195846
aF33.207828223301114
aF40.79964640027614
aF38.99781398269723
aF35.810772756855926
aF36.60281975138445
aF33.595229315366936
aF36.80001350981849
aF43.603221839090814
aF39.80000909605959
aF37.798449529780726
aF34.39953018296506
aF41.006429185170376
aF38.79576700898476
aF34.99818552144535
aF38.398966186134864
aF39.17995869708265
aF37.60509886836563
aF44.20044160887956
aF43.81340868817332
aF38.19702125654321
aF36.40110485516457
aF39.20132725328985
aF36.598738458897984
aF47.0027038449941
aF41.00249550659411
aF40.19473033133856
aF41.20298933357603
aF38.20104858201947
aF35.005013653954435
aF38.795834434114894
aF38.79898959877254
aF39.2017796645468
aF36.20209933053628
aF35.80247710179588
aF35.6016696463147
aF38.19361082246666
aF38.19750944497766
aF37.192547482026406
aF43.201554882982954
aF42.39428528414549
aF40.00209809696768
aF42.99562517266463
aF40.99418252810482
aF38.20263856431734
aF44.39960011605315
aF46.01753420121115
aF39.6055107754018
aF39.20195573936676
aF39.795643002697474
aF39.405348515807304
aF39.79867660742262
aF37.99949630102494
aF38.595313774645696
aF39.5948545545049
aF34.9971556577216
aF43.398394513140495
aF37.800927542475144
aF34.20049437525342
aF38.004188250869966
aF36.19906545636292
aF34.402675436740324
aF37.397522905671664
aF35.396540796644125
aF39.20102643058624
aF41.000360126431076
aF38.20258888713268
aF39.999332567027494
aF36.60802623290646
aF41.38880462969908
aF38.20221406916399
aF36.800806909868086
aF37.99517385854472
aF34.798921973643466
aF42.00477316763764
aF38.3952041616749
aF42.396459823715574
aF36.59964001946779
aF43.80280085617363
aF39.00286181937295
aF36.602956892300824
aF39.3982689416224
aF35.40091673445818
aF40.99870015387722
aF36.79948842478921
aF25.417488558441455
aF38.397980296476206
aF38.99882812300718
aF37.394987724111054
aF38.40288364409676
aF39.60332677747357
aF37.80018753822211
aF40.99481031961668
aF38.206021301259476
aF38.19645954255577
a.